; Function Attrs: mustprogress uwtable
define hidden noundef zeroext i1 @_ZN4cvc58internal16ProofNodeManager10updateNodeEPNS0_9ProofNodeES3_(ptr nocapture noundef nonnull readonly align 8 dereferenceable(32) %this, ptr noundef %pn, ptr noundef %pnr) local_unnamed_addr #3 align 2 personality ptr @__gxx_personality_v0 {
entry:
  %ref.tmp = alloca %"class.cvc5::internal::NodeTemplate", align 8
  %ref.tmp2 = alloca %"class.cvc5::internal::NodeTemplate", align 8
  %cmp = icmp eq ptr %pn, %pnr
  br i1 %cmp, label %return, label %if.end

if.end:                                           ; preds = %entry
  call void @_ZNK4cvc58internal9ProofNode9getResultEv(ptr nonnull sret(%"class.cvc5::internal::NodeTemplate") align 8 %ref.tmp, ptr noundef nonnull align 8 dereferenceable(65) %pn)
  invoke void @_ZNK4cvc58internal9ProofNode9getResultEv(ptr nonnull sret(%"class.cvc5::internal::NodeTemplate") align 8 %ref.tmp2, ptr noundef nonnull align 8 dereferenceable(65) %pnr)
          to label %invoke.cont unwind label %lpad

invoke.cont:                                      ; preds = %if.end
  %0 = load ptr, ptr %ref.tmp, align 8
  %1 = load ptr, ptr %ref.tmp2, align 8
  %cmp.i.not = icmp eq ptr %0, %1
  %bf.load.i.i = load i64, ptr %1, align 8
  %2 = and i64 %bf.load.i.i, 1152920405095219200
  %cmp.not.i.i = icmp eq i64 %2, 1152920405095219200
  br i1 %cmp.not.i.i, label %_ZN4cvc58internal12NodeTemplateILb1EED2Ev.exit, label %if.then.i.i

if.then.i.i:                                      ; preds = %invoke.cont
  %bf.value.i.i = add i64 %bf.load.i.i, 1152920405095219200
  %bf.shl.i.i = and i64 %bf.value.i.i, 1152920405095219200
  %bf.clear7.i.i = and i64 %bf.load.i.i, -1152920405095219201
  %bf.set.i.i = or disjoint i64 %bf.shl.i.i, %bf.clear7.i.i
  store i64 %bf.set.i.i, ptr %1, align 8
  %cmp12.i.i = icmp eq i64 %bf.shl.i.i, 0
  br i1 %cmp12.i.i, label %if.then13.i.i, label %_ZN4cvc58internal12NodeTemplateILb1EED2Ev.exit

if.then13.i.i:                                    ; preds = %if.then.i.i
  invoke void @_ZN4cvc58internal4expr9NodeValue15markForDeletionEv(ptr noundef nonnull align 8 dereferenceable(16) %1)
          to label %_ZN4cvc58internal12NodeTemplateILb1EED2Ev.exit unwind label %terminate.lpad.i

terminate.lpad.i:                                 ; preds = %if.then13.i.i
  %3 = landingpad { ptr, i32 }
          catch ptr null
  %4 = extractvalue { ptr, i32 } %3, 0
  call void @__clang_call_terminate(ptr %4) #21
  unreachable

_ZN4cvc58internal12NodeTemplateILb1EED2Ev.exit:   ; preds = %invoke.cont, %if.then.i.i, %if.then13.i.i
  %5 = load ptr, ptr %ref.tmp, align 8
  %bf.load.i.i9 = load i64, ptr %5, align 8
  %6 = and i64 %bf.load.i.i9, 1152920405095219200
  %cmp.not.i.i10 = icmp eq i64 %6, 1152920405095219200
  br i1 %cmp.not.i.i10, label %_ZN4cvc58internal12NodeTemplateILb1EED2Ev.exit19, label %if.then.i.i11

if.then.i.i11:                                    ; preds = %_ZN4cvc58internal12NodeTemplateILb1EED2Ev.exit
  %bf.value.i.i12 = add i64 %bf.load.i.i9, 1152920405095219200
  %bf.shl.i.i13 = and i64 %bf.value.i.i12, 1152920405095219200
  %bf.clear7.i.i14 = and i64 %bf.load.i.i9, -1152920405095219201
  %bf.set.i.i15 = or disjoint i64 %bf.shl.i.i13, %bf.clear7.i.i14
  store i64 %bf.set.i.i15, ptr %5, align 8
  %cmp12.i.i16 = icmp eq i64 %bf.shl.i.i13, 0
  br i1 %cmp12.i.i16, label %if.then13.i.i17, label %_ZN4cvc58internal12NodeTemplateILb1EED2Ev.exit19

if.then13.i.i17:                                  ; preds = %if.then.i.i11
  invoke void @_ZN4cvc58internal4expr9NodeValue15markForDeletionEv(ptr noundef nonnull align 8 dereferenceable(16) %5)
          to label %_ZN4cvc58internal12NodeTemplateILb1EED2Ev.exit19 unwind label %terminate.lpad.i18

terminate.lpad.i18:                               ; preds = %if.then13.i.i17
  %7 = landingpad { ptr, i32 }
          catch ptr null
  %8 = extractvalue { ptr, i32 } %7, 0
  call void @__clang_call_terminate(ptr %8) #21
  unreachable

_ZN4cvc58internal12NodeTemplateILb1EED2Ev.exit19: ; preds = %_ZN4cvc58internal12NodeTemplateILb1EED2Ev.exit, %if.then.i.i11, %if.then13.i.i17
  br i1 %cmp.i.not, label %if.end6, label %return

lpad:                                             ; preds = %if.end
  %9 = landingpad { ptr, i32 }
          cleanup
  call void @_ZN4cvc58internal12NodeTemplateILb1EED2Ev(ptr noundef nonnull align 8 dereferenceable(8) %ref.tmp) #19
  resume { ptr, i32 } %9

if.end6:                                          ; preds = %_ZN4cvc58internal12NodeTemplateILb1EED2Ev.exit19
  %d_provenChecked = getelementptr inbounds i8, ptr %pnr, i64 64
  %10 = load i8, ptr %d_provenChecked, align 8
  %11 = and i8 %10, 1
  %d_provenChecked7 = getelementptr inbounds i8, ptr %pn, i64 64
  store i8 %11, ptr %d_provenChecked7, align 8
  %call8 = call noundef i32 @_ZNK4cvc58internal9ProofNode7getRuleEv(ptr noundef nonnull align 8 dereferenceable(65) %pnr)
  %call9 = call noundef nonnull align 8 dereferenceable(24) ptr @_ZNK4cvc58internal9ProofNode11getChildrenEv(ptr noundef nonnull align 8 dereferenceable(65) %pnr)
  %call10 = call noundef nonnull align 8 dereferenceable(24) ptr @_ZNK4cvc58internal9ProofNode12getArgumentsEv(ptr noundef nonnull align 8 dereferenceable(65) %pnr)
  %call11 = call noundef zeroext i1 @_ZN4cvc58internal16ProofNodeManager18updateNodeInternalEPNS0_9ProofNodeENS_9ProofRuleERKSt6vectorISt10shared_ptrIS2_ESaIS7_EERKS5_INS0_12NodeTemplateILb1EEESaISD_EEb(ptr noundef nonnull align 8 dereferenceable(32) %this, ptr noundef nonnull %pn, i32 noundef %call8, ptr noundef nonnull align 8 dereferenceable(24) %call9, ptr noundef nonnull align 8 dereferenceable(24) %call10, i1 noundef zeroext false)
  br label %return

return:                                           ; preds = %_ZN4cvc58internal12NodeTemplateILb1EED2Ev.exit19, %entry, %if.end6
  %retval.0 = phi i1 [ %call11, %if.end6 ], [ true, %entry ], [ false, %_ZN4cvc58internal12NodeTemplateILb1EED2Ev.exit19 ]
  ret i1 %retval.0
}